(lp0
(lp1
cnumpy.core.multiarray
scalar
p2
(cnumpy
dtype
p3
(S'f4'
p4
I0
I1
tp5
Rp6
(I3
S'<'
p7
NNNI-1
I-1
I0
tp8
bS'<d.?'
p9
tp10
Rp11
ag2
(g6
S'\xc1iI?'
p12
tp13
Rp14
ag2
(g6
S'\x17rY?'
p15
tp16
Rp17
ag2
(g6
S'\xc5\xa0Y?'
p18
tp19
Rp20
ag2
(g6
S'\xfd\xdc_?'
p21
tp22
Rp23
ag2
(g6
S'TPe?'
p24
tp25
Rp26
ag2
(g6
S'Bvi?'
p27
tp28
Rp29
ag2
(g6
S'\xa9\x8cj?'
p30
tp31
Rp32
ag2
(g6
S'\x94\xf0k?'
p33
tp34
Rp35
ag2
(g6
S'\x00\np?'
p36
tp37
Rp38
ag2
(g6
S'\x1f\xefq?'
p39
tp40
Rp41
ag2
(g6
S',\x0ep?'
p42
tp43
Rp44
ag2
(g6
S'\x07&s?'
p45
tp46
Rp47
ag2
(g6
S'*\xadr?'
p48
tp49
Rp50
ag2
(g6
S'I\x92t?'
p51
tp52
Rp53
ag2
(g6
S'\x04\xf9r?'
p54
tp55
Rp56
ag2
(g6
S'\xc6\x1aw?'
p57
tp58
Rp59
ag2
(g6
S'&\x15u?'
p60
tp61
Rp62
ag2
(g6
S'\xf2\x1ew?'
p63
tp64
Rp65
ag2
(g6
S'\x8f\xf7x?'
p66
tp67
Rp68
ag2
(g6
S',\x0ex?'
p69
tp70
Rp71
ag2
(g6
S'\xb5\xabx?'
p72
tp73
Rp74
ag2
(g6
S'\xe5\ty?'
p75
tp76
Rp77
ag2
(g6
S'iMy?'
p78
tp79
Rp80
ag2
(g6
S'r\xd4y?'
p81
tp82
Rp83
ag2
(g6
S'\x08\x87x?'
p84
tp85
Rp86
ag2
(g6
S'\x14;y?'
p87
tp88
Rp89
ag2
(g6
S'#\x87w?'
p90
tp91
Rp92
ag2
(g6
S'\xe2\xdcx?'
p93
tp94
Rp95
ag2
(g6
S'A\x0b|?'
p96
tp97
Rp98
ag2
(g6
S';\xb1{?'
p99
tp100
Rp101
ag2
(g6
S'%Iz?'
p102
tp103
Rp104
ag2
(g6
S'\x17hy?'
p105
tp106
Rp107
ag2
(g6
S'\x1f\xefy?'
p108
tp109
Rp110
ag2
(g6
S'\x8d\xd4x?'
p111
tp112
Rp113
ag2
(g6
S'%Iz?'
p114
tp115
Rp116
ag2
(g6
S'\xc5N|?'
p117
tp118
Rp119
ag2
(g6
S'3*{?'
p120
tp121
Rp122
ag2
(g6
S'}\x88z?'
p123
tp124
Rp125
ag2
(g6
S'\xbc\xc7{?'
p126
tp127
Rp128
ag2
(g6
S'\xc8{|?'
p129
tp130
Rp131
ag2
(g6
S'TF}?'
p132
tp133
Rp134
ag2
(g6
S'\xba\x9a{?'
p135
tp136
Rp137
ag2
(g6
S'\xd3/}?'
p138
tp139
Rp140
ag2
(g6
S'5W{?'
p141
tp142
Rp143
ag2
(g6
S'I\x92|?'
p144
tp145
Rp146
ag2
(g6
S'\xd3/}?'
p147
tp148
Rp149
ag2
(g6
S'\xde\xe3}?'
p150
tp151
Rp152
ag2
(g6
S'I\x92|?'
p153
tp154
Rp155
ag2
(g6
S'\xcd\xd5|?'
p156
tp157
Rp158
ag2
(g6
S'\x9cw|?'
p159
tp160
Rp161
ag2
(g6
S'\x92$y?'
p162
tp163
Rp164
ag2
(g6
S'}\x88z?'
p165
tp166
Rp167
ag2
(g6
S'5W{?'
p168
tp169
Rp170
ag2
(g6
S'\x95Qy?'
p171
tp172
Rp173
ag2
(g6
S'8\x84{?'
p174
tp175
Rp176
ag2
(g6
S'Ws}?'
p177
tp178
Rp179
ag2
(g6
S')B}?'
p180
tp181
Rp182
ag2
(g6
S'Fe|?'
p183
tp184
Rp185
ag2
(g6
S'\xae\xe6z?'
p186
tp187
Rp188
ag2
(g6
S'.\x9c}?'
p189
tp190
Rp191
ag2
(g6
S'\xa9\x8cz?'
p192
tp193
Rp194
ag2
(g6
S'\xcb\xa8|?'
p195
tp196
Rp197
ag2
(g6
S'\xcb\xa8|?'
p198
tp199
Rp200
ag2
(g6
S')B}?'
p201
tp202
Rp203
ag2
(g6
S'\xe4=~?'
p204
tp205
Rp206
ag2
(g6
S'#\xe8|?'
p207
tp208
Rp209
ag2
(g6
S'\xd9\x89}?'
p210
tp211
Rp212
ag2
(g6
S'.\x9c}?'
p213
tp214
Rp215
ag2
(g6
S'A\x0b|?'
p216
tp217
Rp218
ag2
(g6
S'\xb0\xb2}?'
p219
tp220
Rp221
ag2
(g6
S'\xa2\xd1|?'
p222
tp223
Rp224
ag2
(g6
S'\xd6\\}?'
p225
tp226
Rp227
ag2
(g6
S'I\x92|?'
p228
tp229
Rp230
ag2
(g6
S'\xde\xe3}?'
p231
tp232
Rp233
ag2
(g6
S'`\xfa}?'
p234
tp235
Rp236
ag2
(g6
S'\xbf\xf4{?'
p237
tp238
Rp239
ag2
(g6
S'Z\xa0}?'
p240
tp241
Rp242
ag2
(g6
S'\xd6\\}?'
p243
tp244
Rp245
ag2
(g6
S'L\xbf|?'
p246
tp247
Rp248
ag2
(g6
S'\xde\xe3}?'
p249
tp250
Rp251
ag2
(g6
S'q\x08\x7f?'
p252
tp253
Rp254
ag2
(g6
S'\xe1\x10~?'
p255
tp256
Rp257
ag2
(g6
S'eT~?'
p258
tp259
Rp260
ag2
(g6
S'\xf2\x1e\x7f?'
p261
tp262
Rp263
ag2
(g6
S'\xf2\x1e\x7f?'
p264
tp265
Rp266
ag2
(g6
S'\xc1\xc0~?'
p267
tp268
Rp269
ag2
(g6
S'\xd6\\}?'
p270
tp271
Rp272
ag2
(g6
S'\x9f\xa4|?'
p273
tp274
Rp275
ag2
(g6
S'L\xbf|?'
p276
tp277
Rp278
ag2
(g6
S'eT~?'
p279
tp280
Rp281
ag2
(g6
S'\xd3/}?'
p282
tp283
Rp284
ag2
(g6
S'TF}?'
p285
tp286
Rp287
ag2
(g6
S'L\xbf|?'
p288
tp289
Rp290
ag2
(g6
S'\xe1\x10~?'
p291
tp292
Rp293
ag2
(g6
S'\xcb\xa8|?'
p294
tp295
Rp296
ag2
(g6
S'n\xdb~?'
p297
tp298
Rp299
ag2
(g6
S'n\xdb~?'
p300
tp301
Rp302
ag2
(g6
S's5\x7f?'
p303
tp304
Rp305
ag2
(g6
S'\xf2\x1e\x7f?'
p306
tp307
Rp308
ag2
(g6
S'n\xdb~?'
p309
tp310
Rp311
ag2
(g6
S'\xf8x\x7f?'
p312
tp313
Rp314
ag2
(g6
S'\xe7j~?'
p315
tp316
Rp317
ag2
(g6
S'L\xbf|?'
p318
tp319
Rp320
ag2
(g6
S'\xd0\x02}?'
p321
tp322
Rp323
ag2
(g6
S'`\xfa}?'
p324
tp325
Rp326
ag2
(g6
S'\xec\xc4~?'
p327
tp328
Rp329
ag2
(g6
S'n\xdb~?'
p330
tp331
Rp332
ag2
(g6
S'y\x8f\x7f?'
p333
tp334
Rp335
ag2
(g6
S'`\xfa}?'
p336
tp337
Rp338
ag2
(g6
S'k\xae~?'
p339
tp340
Rp341
ag2
(g6
S'\xe9\x97~?'
p342
tp343
Rp344
ag2
(g6
S'\xe1\x10~?'
p345
tp346
Rp347
ag2
(g6
S's5\x7f?'
p348
tp349
Rp350
ag2
(g6
S'\xef\xf1~?'
p351
tp352
Rp353
ag2
(g6
S'\xf5K\x7f?'
p354
tp355
Rp356
ag2
(g6
S'\xd0\x02}?'
p357
tp358
Rp359
ag2
(g6
S'k\xae~?'
p360
tp361
Rp362
ag2
(g6
S'\xe9\x97~?'
p363
tp364
Rp365
ag2
(g6
S'K^\x7f?'
p366
tp367
Rp368
ag2
(g6
S'\xb5\x0c~?'
p369
tp370
Rp371
ag2
(g6
S'n\xdb~?'
p372
tp373
Rp374
ag2
(g6
S's5\x7f?'
p375
tp376
Rp377
ag2
(g6
S's5\x7f?'
p378
tp379
Rp380
ag2
(g6
S'\xd9\x89}?'
p381
tp382
Rp383
ag2
(g6
S'\xd0\x02}?'
p384
tp385
Rp386
ag2
(g6
S'\xd3/}?'
p387
tp388
Rp389
ag2
(g6
S'Z\xa0}?'
p390
tp391
Rp392
ag2
(g6
S'\xe7j~?'
p393
tp394
Rp395
ag2
(g6
S'\xf8x\x7f?'
p396
tp397
Rp398
ag2
(g6
S'\xfd\xd2\x7f?'
p399
tp400
Rp401
ag2
(g6
S'\xfd\xd2\x7f?'
p402
tp403
Rp404
ag2
(g6
S'\xf8x\x7f?'
p405
tp406
Rp407
ag2
(g6
S'\xf8x\x7f?'
p408
tp409
Rp410
ag2
(g6
S'vb\x7f?'
p411
tp412
Rp413
ag2
(g6
S'\xf5K\x7f?'
p414
tp415
Rp416
ag2
(g6
S's5\x7f?'
p417
tp418
Rp419
ag2
(g6
S'\xe7j~?'
p420
tp421
Rp422
ag2
(g6
S'eT~?'
p423
tp424
Rp425
ag2
(g6
S'h\x81~?'
p426
tp427
Rp428
ag2
(g6
S'h\x81~?'
p429
tp430
Rp431
ag2
(g6
S'\xe9\x97~?'
p432
tp433
Rp434
ag2
(g6
S'\xdb\xb6}?'
p435
tp436
Rp437
ag2
(g6
S'\xf2\x1e\x7f?'
p438
tp439
Rp440
ag2
(g6
S'n\xdb~?'
p441
tp442
Rp443
ag2
(g6
S'q\x08\x7f?'
p444
tp445
Rp446
ag2
(g6
S'\xf5K\x7f?'
p447
tp448
Rp449
ag2
(g6
S'\xec\xc4~?'
p450
tp451
Rp452
ag2
(g6
S'q\x08\x7f?'
p453
tp454
Rp455
ag2
(g6
S'\xf8x\x7f?'
p456
tp457
Rp458
ag2
(g6
S'\xfd\xd2\x7f?'
p459
tp460
Rp461
ag2
(g6
S'\xf2\x1e\x7f?'
p462
tp463
Rp464
ag2
(g6
S'eT~?'
p465
tp466
Rp467
ag2
(g6
S'q\x08\x7f?'
p468
tp469
Rp470
ag2
(g6
S'q\x08\x7f?'
p471
tp472
Rp473
ag2
(g6
S'\xe7j~?'
p474
tp475
Rp476
ag2
(g6
S'eT~?'
p477
tp478
Rp479
ag2
(g6
S'n\xdb~?'
p480
tp481
Rp482
ag2
(g6
S'\xf2\x1e\x7f?'
p483
tp484
Rp485
ag2
(g6
S'\xfd\xd2\x7f?'
p486
tp487
Rp488
ag2
(g6
S'\xfa\xa5\x7f?'
p489
tp490
Rp491
ag2
(g6
S'y\x8f\x7f?'
p492
tp493
Rp494
ag2
(g6
S'\xf8x\x7f?'
p495
tp496
Rp497
ag2
(g6
S'\xf8x\x7f?'
p498
tp499
Rp500
ag2
(g6
S'vb\x7f?'
p501
tp502
Rp503
ag2
(g6
S'\xd6\\}?'
p504
tp505
Rp506
ag2
(g6
S'R\x19}?'
p507
tp508
Rp509
ag2
(g6
S'\xc6\x1a\x7f?'
p510
tp511
Rp512
ag2
(g6
S']\xcd}?'
p513
tp514
Rp515
ag2
(g6
S'\xe9\x97~?'
p516
tp517
Rp518
ag2
(g6
S'\xf5K\x7f?'
p519
tp520
Rp521
ag2
(g6
S'\xfd\xd2\x7f?'
p522
tp523
Rp524
ag2
(g6
S'|\xbc\x7f?'
p525
tp526
Rp527
ag2
(g6
S'\xfa\xa5\x7f?'
p528
tp529
Rp530
ag2
(g6
S'y\x8f\x7f?'
p531
tp532
Rp533
ag2
(g6
S'vb\x7f?'
p534
tp535
Rp536
ag2
(g6
S'\xf5K\x7f?'
p537
tp538
Rp539
ag2
(g6
S'\xf8x\x7f?'
p540
tp541
Rp542
ag2
(g6
S'\xf8x\x7f?'
p543
tp544
Rp545
ag2
(g6
S'|\xbc\x7f?'
p546
tp547
Rp548
ag2
(g6
S's5\x7f?'
p549
tp550
Rp551
ag2
(g6
S':P~?'
p552
tp553
Rp554
ag2
(g6
S'\xff=}?'
p555
tp556
Rp557
ag2
(g6
S'\xec\xc4~?'
p558
tp559
Rp560
ag2
(g6
S's5\x7f?'
p561
tp562
Rp563
ag2
(g6
S'\xfa\xa5\x7f?'
p564
tp565
Rp566
ag2
(g6
S'\xf8x\x7f?'
p567
tp568
Rp569
ag2
(g6
S'\xc1\xc0~?'
p570
tp571
Rp572
ag2
(g6
S's5\x7f?'
p573
tp574
Rp575
ag2
(g6
S'n\xdb~?'
p576
tp577
Rp578
ag2
(g6
S'\xf8x\x7f?'
p579
tp580
Rp581
ag2
(g6
S'vb\x7f?'
p582
tp583
Rp584
ag2
(g6
S'\xf8x\x7f?'
p585
tp586
Rp587
ag2
(g6
S'y\x8f\x7f?'
p588
tp589
Rp590
ag2
(g6
S's5\x7f?'
p591
tp592
Rp593
ag2
(g6
S's5\x7f?'
p594
tp595
Rp596
ag2
(g6
S'k\xae~?'
p597
tp598
Rp599
ag2
(g6
S'\xfa\xa5\x7f?'
p600
tp601
Rp602
ag2
(g6
S'|\xbc\x7f?'
p603
tp604
Rp605
ag2
(g6
S'\xf5K\x7f?'
p606
tp607
Rp608
aa(lp609
g2
(g6
S'FlF?'
p610
tp611
Rp612
ag2
(g6
S'\xe1-R?'
p613
tp614
Rp615
ag2
(g6
S'SJY?'
p616
tp617
Rp618
ag2
(g6
S'h\xa2Q?'
p619
tp620
Rp621
ag2
(g6
S'\xeb\x00a?'
p622
tp623
Rp624
ag2
(g6
S'J)e?'
p625
tp626
Rp627
ag2
(g6
S'\xb6\xd6b?'
p628
tp629
Rp630
ag2
(g6
S'\x15\xa6]?'
p631
tp632
Rp633
ag2
(g6
S'\x11Bh?'
p634
tp635
Rp636
ag2
(g6
S'D\xbac?'
p637
tp638
Rp639
ag2
(g6
S'\xc8\xcae?'
p640
tp641
Rp642
ag2
(g6
S'm_h?'
p643
tp644
Rp645
ag2
(g6
S'SJi?'
p646
tp647
Rp648
ag2
(g6
S'\xf8\xdek?'
p649
tp650
Rp651
ag2
(g6
S'<\x99g?'
p652
tp653
Rp654
ag2
(g6
S'\x1b\x15g?'
p655
tp656
Rp657
ag2
(g6
S'\xa7Fe?'
p658
tp659
Rp660
ag2
(g6
S'\x1b\x15g?'
p661
tp662
Rp663
ag2
(g6
S'm_h?'
p664
tp665
Rp666
ag2
(g6
S'#6k?'
p667
tp668
Rp669
ag2
(g6
S'\xe1-j?'
p670
tp671
Rp672
ag2
(g6
S'~\xa1h?'
p673
tp674
Rp675
ag2
(g6
S'D\xbak?'
p676
tp677
Rp678
ag2
(g6
S'\x02\xb2j?'
p679
tp680
Rp681
ag2
(g6
S'e>l?'
p682
tp683
Rp684
ag2
(g6
S'\x02\xb2j?'
p685
tp686
Rp687
ag2
(g6
S'\xc0\xa9i?'
p688
tp689
Rp690
ag2
(g6
S'\x97\x04m?'
p691
tp692
Rp693
ag2
(g6
S'\xd9\x0cf?'
p694
tp695
Rp696
ag2
(g6
S'U\xfck?'
p697
tp698
Rp699
ag2
(g6
S'\x02\xb2j?'
p700
tp701
Rp702
ag2
(g6
S'\x02\xb2j?'
p703
tp704
Rp705
ag2
(g6
S'\xb8\x88m?'
p706
tp707
Rp708
ag2
(g6
S'D\xbak?'
p709
tp710
Rp711
ag2
(g6
S'\xc0\xa9i?'
p712
tp713
Rp714
ag2
(g6
S'\xe9Nn?'
p715
tp716
Rp717
ag2
(g6
S'\x97\x04m?'
p718
tp719
Rp720
ag2
(g6
S'4xk?'
p721
tp722
Rp723
ag2
(g6
S'e>l?'
p724
tp725
Rp726
ag2
(g6
S'\x86\xc2l?'
p727
tp728
Rp729
ag2
(g6
S'\x86\xc2l?'
p730
tp731
Rp732
ag2
(g6
S'\xd9\x0cn?'
p733
tp734
Rp735
ag2
(g6
S'U\xfck?'
p736
tp737
Rp738
ag2
(g6
S'\xa7Fm?'
p739
tp740
Rp741
ag2
(g6
S'\x86\xc2l?'
p742
tp743
Rp744
ag2
(g6
S'<\x99o?'
p745
tp746
Rp747
ag2
(g6
S'<\x99o?'
p748
tp749
Rp750
ag2
(g6
S'<\x99o?'
p751
tp752
Rp753
ag2
(g6
S'!\x84p?'
p754
tp755
Rp756
ag2
(g6
S'\xfa\x90n?'
p757
tp758
Rp759
ag2
(g6
S'\n\xd3n?'
p760
tp761
Rp762
ag2
(g6
S'\xb8\x88m?'
p763
tp764
Rp765
ag2
(g6
S'#6k?'
p766
tp767
Rp768
ag2
(g6
S'\x02\xb2j?'
p769
tp770
Rp771
ag2
(g6
S'\xafgi?'
p772
tp773
Rp774
ag2
(g6
S'\x1b\x15o?'
p775
tp776
Rp777
ag2
(g6
S'm_p?'
p778
tp779
Rp780
ag2
(g6
S'~\xa1p?'
p781
tp782
Rp783
ag2
(g6
S'\x02\xb2j?'
p784
tp785
Rp786
ag2
(g6
S'+Wo?'
p787
tp788
Rp789
ag2
(g6
S'v\x80l?'
p790
tp791
Rp792
ag2
(g6
S'\xce9o?'
p793
tp794
Rp795
ag2
(g6
S'k\xadm?'
p796
tp797
Rp798
ag2
(g6
S'~\xa1p?'
p799
tp800
Rp801
ag2
(g6
S'e>l?'
p802
tp803
Rp804
ag2
(g6
S'+Wo?'
p805
tp806
Rp807
ag2
(g6
S'\xa7Fm?'
p808
tp809
Rp810
ag2
(g6
S'<\x99o?'
p811
tp812
Rp813
ag2
(g6
S'\x9f%q?'
p814
tp815
Rp816
ag2
(g6
S'm_p?'
p817
tp818
Rp819
ag2
(g6
S'<\x99o?'
p820
tp821
Rp822
ag2
(g6
S'\xd9\x0cn?'
p823
tp824
Rp825
ag2
(g6
S'\x1b\x15o?'
p826
tp827
Rp828
ag2
(g6
S'L\xdbo?'
p829
tp830
Rp831
ag2
(g6
S'\n\xd3n?'
p832
tp833
Rp834
ag2
(g6
S'\xbe\xf7f?'
p835
tp836
Rp837
ag2
(g6
S'v\x80l?'
p838
tp839
Rp840
ag2
(g6
S'\xd9\x0cn?'
p841
tp842
Rp843
ag2
(g6
S'+Wo?'
p844
tp845
Rp846
ag2
(g6
S'm_p?'
p847
tp848
Rp849
ag2
(g6
S'\xe9Nn?'
p850
tp851
Rp852
ag2
(g6
S'<\x99o?'
p853
tp854
Rp855
ag2
(g6
S'+Wo?'
p856
tp857
Rp858
ag2
(g6
S']\x1dp?'
p859
tp860
Rp861
ag2
(g6
S'|\xefm?'
p862
tp863
Rp864
ag2
(g6
S'\x1b\x15o?'
p865
tp866
Rp867
ag2
(g6
S'\xfa\x90n?'
p868
tp869
Rp870
ag2
(g6
S'\x1b\x15o?'
p871
tp872
Rp873
ag2
(g6
S'\x86\xc2l?'
p874
tp875
Rp876
ag2
(g6
S'\xe9Nn?'
p877
tp878
Rp879
ag2
(g6
S'\x1b\x15o?'
p880
tp881
Rp882
ag2
(g6
S']\x1dp?'
p883
tp884
Rp885
ag2
(g6
S'\x13\xf4j?'
p886
tp887
Rp888
ag2
(g6
S'\xd9\x0cn?'
p889
tp890
Rp891
ag2
(g6
S'\x8e\xe3p?'
p892
tp893
Rp894
ag2
(g6
S'\n\xd3n?'
p895
tp896
Rp897
ag2
(g6
S'v\x80l?'
p898
tp899
Rp900
ag2
(g6
S'm_p?'
p901
tp902
Rp903
ag2
(g6
S'\x8e\xe3p?'
p904
tp905
Rp906
ag2
(g6
S'\x1b\x15o?'
p907
tp908
Rp909
ag2
(g6
S'\x02\xb2r?'
p910
tp911
Rp912
ag2
(g6
S'm_p?'
p913
tp914
Rp915
ag2
(g6
S'<\x99o?'
p916
tp917
Rp918
ag2
(g6
S'\x86\xc2l?'
p919
tp920
Rp921
ag2
(g6
S'\x9f%q?'
p922
tp923
Rp924
ag2
(g6
S'\x9f%q?'
p925
tp926
Rp927
ag2
(g6
S'\x8e\xe3p?'
p928
tp929
Rp930
ag2
(g6
S'~\xa1p?'
p931
tp932
Rp933
ag2
(g6
S'\xd1\xebq?'
p934
tp935
Rp936
ag2
(g6
S'm_p?'
p937
tp938
Rp939
ag2
(g6
S'\n\xd3n?'
p940
tp941
Rp942
ag2
(g6
S'\x8e\xe3p?'
p943
tp944
Rp945
ag2
(g6
S'm_p?'
p946
tp947
Rp948
ag2
(g6
S'\xafgq?'
p949
tp950
Rp951
ag2
(g6
S'~\xa1p?'
p952
tp953
Rp954
ag2
(g6
S']\x1dp?'
p955
tp956
Rp957
ag2
(g6
S'\xe1-r?'
p958
tp959
Rp960
ag2
(g6
S'\xe1-r?'
p961
tp962
Rp963
ag2
(g6
S'\x1b\x15o?'
p964
tp965
Rp966
ag2
(g6
S'<\x99o?'
p967
tp968
Rp969
ag2
(g6
S'\x13\xf4r?'
p970
tp971
Rp972
ag2
(g6
S'\xe9Nn?'
p973
tp974
Rp975
ag2
(g6
S'm_p?'
p976
tp977
Rp978
ag2
(g6
S'<\x99o?'
p979
tp980
Rp981
ag2
(g6
S']\x1dp?'
p982
tp983
Rp984
ag2
(g6
S'\xfa\x90n?'
p985
tp986
Rp987
ag2
(g6
S']\x1dp?'
p988
tp989
Rp990
ag2
(g6
S'<\x99o?'
p991
tp992
Rp993
ag2
(g6
S'<\x99o?'
p994
tp995
Rp996
ag2
(g6
S'\xd1\xebq?'
p997
tp998
Rp999
ag2
(g6
S'\x02\xb2r?'
p1000
tp1001
Rp1002
ag2
(g6
S'\x8e\xe3p?'
p1003
tp1004
Rp1005
ag2
(g6
S'\xafgq?'
p1006
tp1007
Rp1008
ag2
(g6
S'\x8e\xe3p?'
p1009
tp1010
Rp1011
ag2
(g6
S'm_p?'
p1012
tp1013
Rp1014
ag2
(g6
S'\x8e\xe3p?'
p1015
tp1016
Rp1017
ag2
(g6
S'\x9f%q?'
p1018
tp1019
Rp1020
ag2
(g6
S'\x9f%q?'
p1021
tp1022
Rp1023
ag2
(g6
S'\xe1-r?'
p1024
tp1025
Rp1026
ag2
(g6
S'm_p?'
p1027
tp1028
Rp1029
ag2
(g6
S'#6s?'
p1030
tp1031
Rp1032
ag2
(g6
S'm_p?'
p1033
tp1034
Rp1035
ag2
(g6
S']\x1dp?'
p1036
tp1037
Rp1038
ag2
(g6
S'L\xdbo?'
p1039
tp1040
Rp1041
ag2
(g6
S'\xd9\x0cn?'
p1042
tp1043
Rp1044
ag2
(g6
S'm_p?'
p1045
tp1046
Rp1047
ag2
(g6
S'\n\xd3n?'
p1048
tp1049
Rp1050
ag2
(g6
S'\x9f%q?'
p1051
tp1052
Rp1053
ag2
(g6
S'\xf2or?'
p1054
tp1055
Rp1056
ag2
(g6
S'\xf2or?'
p1057
tp1058
Rp1059
ag2
(g6
S'\x02\xb2r?'
p1060
tp1061
Rp1062
ag2
(g6
S'\x8e\xe3p?'
p1063
tp1064
Rp1065
ag2
(g6
S'~\xa1p?'
p1066
tp1067
Rp1068
ag2
(g6
S']\x1dp?'
p1069
tp1070
Rp1071
ag2
(g6
S'\xd1\xebq?'
p1072
tp1073
Rp1074
ag2
(g6
S'\x1b\x15o?'
p1075
tp1076
Rp1077
ag2
(g6
S'm_p?'
p1078
tp1079
Rp1080
ag2
(g6
S'\xb8\x88m?'
p1081
tp1082
Rp1083
ag2
(g6
S'~\xa1p?'
p1084
tp1085
Rp1086
ag2
(g6
S'\x9f%q?'
p1087
tp1088
Rp1089
ag2
(g6
S'\xc8\xcam?'
p1090
tp1091
Rp1092
ag2
(g6
S'\xfa\x90n?'
p1093
tp1094
Rp1095
ag2
(g6
S'\xafgq?'
p1096
tp1097
Rp1098
ag2
(g6
S'\xe1-r?'
p1099
tp1100
Rp1101
ag2
(g6
S'\xe9Nn?'
p1102
tp1103
Rp1104
ag2
(g6
S'\x8e\xe3p?'
p1105
tp1106
Rp1107
ag2
(g6
S'm_p?'
p1108
tp1109
Rp1110
ag2
(g6
S'\x9f%q?'
p1111
tp1112
Rp1113
ag2
(g6
S'L\xdbo?'
p1114
tp1115
Rp1116
ag2
(g6
S'\xd1\xebq?'
p1117
tp1118
Rp1119
ag2
(g6
S'\xc0\xa9q?'
p1120
tp1121
Rp1122
ag2
(g6
S'\x8e\xe3p?'
p1123
tp1124
Rp1125
ag2
(g6
S'\x13\xf4r?'
p1126
tp1127
Rp1128
ag2
(g6
S'm_p?'
p1129
tp1130
Rp1131
ag2
(g6
S'\xf2or?'
p1132
tp1133
Rp1134
ag2
(g6
S'\xd1\xebq?'
p1135
tp1136
Rp1137
ag2
(g6
S'\xc0\xa9q?'
p1138
tp1139
Rp1140
ag2
(g6
S'\x02\xb2r?'
p1141
tp1142
Rp1143
ag2
(g6
S'\xe1-r?'
p1144
tp1145
Rp1146
ag2
(g6
S'\xd1\xebq?'
p1147
tp1148
Rp1149
ag2
(g6
S'\x1b\x15o?'
p1150
tp1151
Rp1152
ag2
(g6
S'\xafgq?'
p1153
tp1154
Rp1155
ag2
(g6
S'\xc8\xcam?'
p1156
tp1157
Rp1158
ag2
(g6
S'\xe9Nn?'
p1159
tp1160
Rp1161
ag2
(g6
S'\xd1\xebq?'
p1162
tp1163
Rp1164
ag2
(g6
S'\x9f%q?'
p1165
tp1166
Rp1167
ag2
(g6
S'\n\xd3n?'
p1168
tp1169
Rp1170
ag2
(g6
S'\x8e\xe3p?'
p1171
tp1172
Rp1173
ag2
(g6
S'\xe1-r?'
p1174
tp1175
Rp1176
ag2
(g6
S'm_p?'
p1177
tp1178
Rp1179
ag2
(g6
S'\xd1\xebq?'
p1180
tp1181
Rp1182
ag2
(g6
S'\x8e\xe3p?'
p1183
tp1184
Rp1185
ag2
(g6
S'\xc0\xa9q?'
p1186
tp1187
Rp1188
ag2
(g6
S'\x8e\xe3p?'
p1189
tp1190
Rp1191
ag2
(g6
S'+Wo?'
p1192
tp1193
Rp1194
ag2
(g6
S'\x9f%q?'
p1195
tp1196
Rp1197
ag2
(g6
S'~\xa1p?'
p1198
tp1199
Rp1200
ag2
(g6
S'\xfa\x90n?'
p1201
tp1202
Rp1203
ag2
(g6
S'\x9f%q?'
p1204
tp1205
Rp1206
ag2
(g6
S'~\xa1p?'
p1207
tp1208
Rp1209
aa.